target datalayout = "e-m:e-p270:32:32-p271:32:32-p272:64:64-i64:64-i128:128-f80:128-n8:16:32:64-S128"
target triple = "x86_64-pc-linux-gnu"

@.str.1 = private unnamed_addr constant [9 x i8] c"aclchk.c\00", align 1
@.str.137 = private unnamed_addr constant [7 x i8] c"insert\00", align 1
@.str.138 = private unnamed_addr constant [7 x i8] c"select\00", align 1
@.str.139 = private unnamed_addr constant [7 x i8] c"update\00", align 1
@.str.140 = private unnamed_addr constant [7 x i8] c"delete\00", align 1
@.str.141 = private unnamed_addr constant [9 x i8] c"truncate\00", align 1
@.str.142 = private unnamed_addr constant [11 x i8] c"references\00", align 1
@.str.143 = private unnamed_addr constant [8 x i8] c"trigger\00", align 1
@.str.144 = private unnamed_addr constant [8 x i8] c"execute\00", align 1
@.str.145 = private unnamed_addr constant [6 x i8] c"usage\00", align 1
@.str.146 = private unnamed_addr constant [7 x i8] c"create\00", align 1
@.str.147 = private unnamed_addr constant [10 x i8] c"temporary\00", align 1
@.str.148 = private unnamed_addr constant [5 x i8] c"temp\00", align 1
@.str.149 = private unnamed_addr constant [8 x i8] c"connect\00", align 1
@.str.150 = private unnamed_addr constant [4 x i8] c"set\00", align 1
@.str.151 = private unnamed_addr constant [13 x i8] c"alter system\00", align 1
@.str.152 = private unnamed_addr constant [9 x i8] c"maintain\00", align 1
@.str.153 = private unnamed_addr constant [33 x i8] c"unrecognized privilege type \22%s\22\00", align 1
@__func__.string_to_privilege = private unnamed_addr constant [20 x i8] c"string_to_privilege\00", align 1

; Function Attrs: nounwind uwtable
define internal i64 @string_to_privilege(ptr noundef %0) #0 {
  %2 = alloca i64, align 8
  %3 = alloca ptr, align 8
  store ptr %0, ptr %3, align 8
  %4 = load ptr, ptr %3, align 8
  %5 = call i32 @strcmp(ptr noundef %4, ptr noundef @.str.137) #11
  %6 = icmp eq i32 %5, 0
  br i1 %6, label %7, label %8

7:                                                ; preds = %1
  store i64 1, ptr %2, align 8
  br label %95

8:                                                ; preds = %1
  %9 = load ptr, ptr %3, align 8
  %10 = call i32 @strcmp(ptr noundef %9, ptr noundef @.str.138) #11
  %11 = icmp eq i32 %10, 0
  br i1 %11, label %12, label %13

12:                                               ; preds = %8
  store i64 2, ptr %2, align 8
  br label %95

13:                                               ; preds = %8
  %14 = load ptr, ptr %3, align 8
  %15 = call i32 @strcmp(ptr noundef %14, ptr noundef @.str.139) #11
  %16 = icmp eq i32 %15, 0
  br i1 %16, label %17, label %18

17:                                               ; preds = %13
  store i64 4, ptr %2, align 8
  br label %95

18:                                               ; preds = %13
  %19 = load ptr, ptr %3, align 8
  %20 = call i32 @strcmp(ptr noundef %19, ptr noundef @.str.140) #11
  %21 = icmp eq i32 %20, 0
  br i1 %21, label %22, label %23

22:                                               ; preds = %18
  store i64 8, ptr %2, align 8
  br label %95

23:                                               ; preds = %18
  %24 = load ptr, ptr %3, align 8
  %25 = call i32 @strcmp(ptr noundef %24, ptr noundef @.str.141) #11
  %26 = icmp eq i32 %25, 0
  br i1 %26, label %27, label %28

27:                                               ; preds = %23
  store i64 16, ptr %2, align 8
  br label %95

28:                                               ; preds = %23
  %29 = load ptr, ptr %3, align 8
  %30 = call i32 @strcmp(ptr noundef %29, ptr noundef @.str.142) #11
  %31 = icmp eq i32 %30, 0
  br i1 %31, label %32, label %33

32:                                               ; preds = %28
  store i64 32, ptr %2, align 8
  br label %95

33:                                               ; preds = %28
  %34 = load ptr, ptr %3, align 8
  %35 = call i32 @strcmp(ptr noundef %34, ptr noundef @.str.143) #11
  %36 = icmp eq i32 %35, 0
  br i1 %36, label %37, label %38

37:                                               ; preds = %33
  store i64 64, ptr %2, align 8
  br label %95

38:                                               ; preds = %33
  %39 = load ptr, ptr %3, align 8
  %40 = call i32 @strcmp(ptr noundef %39, ptr noundef @.str.144) #11
  %41 = icmp eq i32 %40, 0
  br i1 %41, label %42, label %43

42:                                               ; preds = %38
  store i64 128, ptr %2, align 8
  br label %95

43:                                               ; preds = %38
  %44 = load ptr, ptr %3, align 8
  %45 = call i32 @strcmp(ptr noundef %44, ptr noundef @.str.145) #11
  %46 = icmp eq i32 %45, 0
  br i1 %46, label %47, label %48

47:                                               ; preds = %43
  store i64 256, ptr %2, align 8
  br label %95

48:                                               ; preds = %43
  %49 = load ptr, ptr %3, align 8
  %50 = call i32 @strcmp(ptr noundef %49, ptr noundef @.str.146) #11
  %51 = icmp eq i32 %50, 0
  br i1 %51, label %52, label %53

52:                                               ; preds = %48
  store i64 512, ptr %2, align 8
  br label %95

53:                                               ; preds = %48
  %54 = load ptr, ptr %3, align 8
  %55 = call i32 @strcmp(ptr noundef %54, ptr noundef @.str.147) #11
  %56 = icmp eq i32 %55, 0
  br i1 %56, label %57, label %58

57:                                               ; preds = %53
  store i64 1024, ptr %2, align 8
  br label %95

58:                                               ; preds = %53
  %59 = load ptr, ptr %3, align 8
  %60 = call i32 @strcmp(ptr noundef %59, ptr noundef @.str.148) #11
  %61 = icmp eq i32 %60, 0
  br i1 %61, label %62, label %63

62:                                               ; preds = %58
  store i64 1024, ptr %2, align 8
  br label %95

63:                                               ; preds = %58
  %64 = load ptr, ptr %3, align 8
  %65 = call i32 @strcmp(ptr noundef %64, ptr noundef @.str.149) #11
  %66 = icmp eq i32 %65, 0
  br i1 %66, label %67, label %68

67:                                               ; preds = %63
  store i64 2048, ptr %2, align 8
  br label %95

68:                                               ; preds = %63
  %69 = load ptr, ptr %3, align 8
  %70 = call i32 @strcmp(ptr noundef %69, ptr noundef @.str.150) #11
  %71 = icmp eq i32 %70, 0
  br i1 %71, label %72, label %73

72:                                               ; preds = %68
  store i64 4096, ptr %2, align 8
  br label %95

73:                                               ; preds = %68
  %74 = load ptr, ptr %3, align 8
  %75 = call i32 @strcmp(ptr noundef %74, ptr noundef @.str.151) #11
  %76 = icmp eq i32 %75, 0
  br i1 %76, label %77, label %78

77:                                               ; preds = %73
  store i64 8192, ptr %2, align 8
  br label %95

78:                                               ; preds = %73
  %79 = load ptr, ptr %3, align 8
  %80 = call i32 @strcmp(ptr noundef %79, ptr noundef @.str.152) #11
  %81 = icmp eq i32 %80, 0
  br i1 %81, label %82, label %83

82:                                               ; preds = %78
  store i64 16384, ptr %2, align 8
  br label %95

83:                                               ; preds = %78
  br label %84

84:                                               ; preds = %83
  br i1 true, label %85, label %87

85:                                               ; preds = %84
  %86 = call zeroext i1 @errstart_cold(i32 noundef 21, ptr noundef null) #10
  br i1 %86, label %89, label %93

87:                                               ; preds = %84
  %88 = call zeroext i1 @errstart(i32 noundef 21, ptr noundef null)
  br i1 %88, label %89, label %93

89:                                               ; preds = %87, %85
  %90 = call i32 @errcode(i32 noundef 16801924)
  %91 = load ptr, ptr %3, align 8
  %92 = call i32 (ptr, ...) @errmsg(ptr noundef @.str.153, ptr noundef %91)
  call void @errfinish(ptr noundef @.str.1, i32 noundef 2570, ptr noundef @__func__.string_to_privilege)
  br label %93

93:                                               ; preds = %89, %87, %85
  unreachable

94:                                               ; No predecessors!
  store i64 0, ptr %2, align 8
  br label %95

95:                                               ; preds = %94, %82, %77, %72, %67, %62, %57, %52, %47, %42, %37, %32, %27, %22, %17, %12, %7
  %96 = load i64, ptr %2, align 8
  ret i64 %96
}