; Function Attrs: nounwind uwtable
define internal fastcc range(i64 1, 16385) i64 @string_to_privilege(ptr noundef nonnull %0) unnamed_addr #0 {
  %2 = tail call i32 @strcmp(ptr noundef nonnull dereferenceable(1) %0, ptr noundef nonnull dereferenceable(7) @.str.137) #11
  %3 = icmp eq i32 %2, 0
  br i1 %3, label %53, label %4

4:                                                ; preds = %1
  %5 = tail call i32 @strcmp(ptr noundef nonnull dereferenceable(1) %0, ptr noundef nonnull dereferenceable(7) @.str.138) #11
  %6 = icmp eq i32 %5, 0
  br i1 %6, label %53, label %7

7:                                                ; preds = %4
  %8 = tail call i32 @strcmp(ptr noundef nonnull dereferenceable(1) %0, ptr noundef nonnull dereferenceable(7) @.str.139) #11
  %9 = icmp eq i32 %8, 0
  br i1 %9, label %53, label %10

10:                                               ; preds = %7
  %11 = tail call i32 @strcmp(ptr noundef nonnull dereferenceable(1) %0, ptr noundef nonnull dereferenceable(7) @.str.140) #11
  %12 = icmp eq i32 %11, 0
  br i1 %12, label %53, label %13

13:                                               ; preds = %10
  %14 = tail call i32 @strcmp(ptr noundef nonnull dereferenceable(1) %0, ptr noundef nonnull dereferenceable(9) @.str.141) #11
  %15 = icmp eq i32 %14, 0
  br i1 %15, label %53, label %16

16:                                               ; preds = %13
  %17 = tail call i32 @strcmp(ptr noundef nonnull dereferenceable(1) %0, ptr noundef nonnull dereferenceable(11) @.str.142) #11
  %18 = icmp eq i32 %17, 0
  br i1 %18, label %53, label %19

19:                                               ; preds = %16
  %20 = tail call i32 @strcmp(ptr noundef nonnull dereferenceable(1) %0, ptr noundef nonnull dereferenceable(8) @.str.143) #11
  %21 = icmp eq i32 %20, 0
  br i1 %21, label %53, label %22

22:                                               ; preds = %19
  %23 = tail call i32 @strcmp(ptr noundef nonnull dereferenceable(1) %0, ptr noundef nonnull dereferenceable(8) @.str.144) #11
  %24 = icmp eq i32 %23, 0
  br i1 %24, label %53, label %25

25:                                               ; preds = %22
  %26 = tail call i32 @strcmp(ptr noundef nonnull dereferenceable(1) %0, ptr noundef nonnull dereferenceable(6) @.str.145) #11
  %27 = icmp eq i32 %26, 0
  br i1 %27, label %53, label %28

28:                                               ; preds = %25
  %29 = tail call i32 @strcmp(ptr noundef nonnull dereferenceable(1) %0, ptr noundef nonnull dereferenceable(7) @.str.146) #11
  %30 = icmp eq i32 %29, 0
  br i1 %30, label %53, label %31

31:                                               ; preds = %28
  %32 = tail call i32 @strcmp(ptr noundef nonnull dereferenceable(1) %0, ptr noundef nonnull dereferenceable(10) @.str.147) #11
  %33 = icmp eq i32 %32, 0
  br i1 %33, label %53, label %34

34:                                               ; preds = %31
  %35 = tail call i32 @strcmp(ptr noundef nonnull dereferenceable(1) %0, ptr noundef nonnull dereferenceable(5) @.str.148) #11
  %36 = icmp eq i32 %35, 0
  br i1 %36, label %53, label %37

37:                                               ; preds = %34
  %38 = tail call i32 @strcmp(ptr noundef nonnull dereferenceable(1) %0, ptr noundef nonnull dereferenceable(8) @.str.149) #11
  %39 = icmp eq i32 %38, 0
  br i1 %39, label %53, label %40

40:                                               ; preds = %37
  %41 = tail call i32 @strcmp(ptr noundef nonnull dereferenceable(1) %0, ptr noundef nonnull dereferenceable(4) @.str.150) #11
  %42 = icmp eq i32 %41, 0
  br i1 %42, label %53, label %43

43:                                               ; preds = %40
  %44 = tail call i32 @strcmp(ptr noundef nonnull dereferenceable(1) %0, ptr noundef nonnull dereferenceable(13) @.str.151) #11
  %45 = icmp eq i32 %44, 0
  br i1 %45, label %53, label %46

46:                                               ; preds = %43
  %47 = tail call i32 @strcmp(ptr noundef nonnull dereferenceable(1) %0, ptr noundef nonnull dereferenceable(9) @.str.152) #11
  %48 = icmp eq i32 %47, 0
  br i1 %48, label %53, label %49

49:                                               ; preds = %46
  %50 = tail call zeroext i1 @errstart_cold(i32 noundef 21, ptr noundef null) #10
  tail call void @llvm.assume(i1 %50)
  %51 = tail call i32 @errcode(i32 noundef 16801924) #9
  %52 = tail call i32 (ptr, ...) @errmsg(ptr noundef nonnull @.str.153, ptr noundef nonnull %0) #9
  tail call void @errfinish(ptr noundef nonnull @.str.1, i32 noundef 2570, ptr noundef nonnull @__func__.string_to_privilege) #9
  unreachable

53:                                               ; preds = %46, %43, %40, %37, %34, %31, %28, %25, %22, %19, %16, %13, %10, %7, %4, %1
  %.0 = phi i64 [ 1, %1 ], [ 2, %4 ], [ 4, %7 ], [ 8, %10 ], [ 16, %13 ], [ 32, %16 ], [ 64, %19 ], [ 128, %22 ], [ 256, %25 ], [ 512, %28 ], [ 1024, %31 ], [ 1024, %34 ], [ 2048, %37 ], [ 4096, %40 ], [ 8192, %43 ], [ 16384, %46 ]
  ret i64 %.0
}